(dp0
S'1'
p1
(dp2
S'c'
p3
VETHERNET/IP
p4
sS'b'
p5
V192.168.1.10
p6
sS'addresses'
p7
(dp8
V300
p9
(dp10
V2-16
p11
(dp12
Vah
p13
V
p14
sVbytary
p15
NsVal
p16
g14
sVvn
p17
VAlarm: Flowmeter
p18
sVct
p19
Vnumber
p20
sVle
p21
V16
p22
sVgrp
p23
V3600
p24
sVla
p25
I0
sVchn
p26
Valarmflowrate
p27
sVr
p28
V0-1
p29
sVun
p30
V1
p31
sVdn
p32
Vadvvfdipp
p33
sVda
p34
V300
p35
sVlrt
p36
F1478557571.8234351
sVa
p37
Valarm_Flowmeter
p38
sVc
p39
V0
p40
sVmisc_u
p41
g14
sVf
p42
g31
sVmrt
p43
V10
p44
sVm
p45
Vnone
p46
sVm1ch
p47
g11
sVs
p48
VOn
p49
sVmv
p50
g40
sVt
p51
Vint
p52
sVvm
p53
(dp54
g31
VAlarm
p55
sg40
VOK
p56
sssV2-29
p57
(dp58
Vah
p59
g14
sVbytary
p60
NsVal
p61
g14
sVvn
p62
VTubing Pressure Setpoint
p63
sVct
p64
Vnumber
p65
sVle
p66
V16
p67
sVgrp
p68
V3600
p69
sVla
p70
F90.0
sVchn
p71
Vtubingpressuresetpoint
p72
sVun
p73
V1
p74
sVdn
p75
Vadvvfdipp
p76
sVda
p77
V300
p78
sVlrt
p79
F1478557573.0463272
sVa
p80
Vcfg_PID_TubingPressureSP
p81
sVc
p82
V0
p83
sVmisc_u
p84
VPSI
p85
sVf
p86
g74
sVmrt
p87
V10
p88
sVm
p89
Vnone
p90
sS'm1ch'
p91
g57
sVmv
p92
g83
sVs
p93
VOn
p94
sVr
p95
V0-250
p96
sVt
p97
Vint
p98
sVvm
p99
NssV2-28
p100
(dp101
Vah
p102
g14
sVbytary
p103
NsVal
p104
g14
sVvn
p105
VManual Frequency Setpoint
p106
sVct
p107
Vnumber
p108
sVle
p109
V16
p110
sVgrp
p111
V3600
p112
sVla
p113
F45.0
sVchn
p114
Vmanualfrequencysetpoint
p115
sVun
p116
g74
sVdn
p117
Vadvvfdipp
p118
sVda
p119
V300
p120
sVlrt
p121
F1478557574.1227669
sg80
Vcfg_PID_ManualSP
p122
sg82
g74
sVmisc_u
p123
VHz
p124
sg86
g74
sVmrt
p125
V10
p126
sg89
Vnone
p127
sg91
g100
sVmv
p128
g83
sg93
VOn
p129
sg95
V0-100
p130
sg97
Vint
p131
sVvm
p132
NssV2-25
p133
(dp134
Vah
p135
g14
sVbytary
p136
NsVal
p137
g14
sVvn
p138
VStop Command
p139
sVct
p140
Vnumber
p141
sVle
p142
V16
p143
sVgrp
p144
V3600
p145
sVla
p146
I0
sVchn
p147
Vstopcommand
p148
sVun
p149
g74
sVdn
p150
Vadvvfdipp
p151
sVda
p152
V300
p153
sVlrt
p154
F1478557575.1971099
sg80
Vcmd_Stop
p155
sg82
g83
sVmisc_u
p156
g14
sg86
g74
sVmrt
p157
V5
p158
sg89
Vnone
p159
sg91
g133
sVmv
p160
g83
sg93
VOn
p161
sg95
g14
sg97
Vint
p162
sVvm
p163
NssV2-24
p164
(dp165
Vah
p166
g14
sVbytary
p167
NsVal
p168
g14
sVvn
p169
VStart Command
p170
sVct
p171
Vnumber
p172
sVle
p173
V16
p174
sVgrp
p175
V3600
p176
sVla
p177
I0
sVchn
p178
Vstartcommand
p179
sVun
p180
g74
sVdn
p181
Vadvvfdipp
p182
sVda
p183
V300
p184
sVlrt
p185
F1478557576.2684458
sg80
Vcmd_Start
p186
sg82
g83
sVmisc_u
p187
g14
sg86
g74
sVmrt
p188
g158
sg89
Vnone
p189
sg91
g164
sVmv
p190
g83
sg93
VOn
p191
sg95
V0-1
p192
sg97
Vint
p193
sVvm
p194
NssV2-27
p195
(dp196
Vah
p197
g14
sVbytary
p198
NsVal
p199
V0
p200
sVvn
p201
VFluid Level Setpoint
p202
sVct
p203
Vnumber
p204
sVle
p205
V16
p206
sVgrp
p207
V3600
p208
sVla
p209
F40.0
sVchn
p210
Vfluidlevelsetpoint
p211
sVun
p212
V1
p213
sVdn
p214
Vadvvfdipp
p215
sVda
p216
V300
p217
sVlrt
p218
F1478557577.377035
sVr
p219
V0-1000
p220
sVa
p221
Vcfg_PID_FluidLevelSP
p222
sVc
p223
V2
p224
sVmisc_u
p225
Vft
p226
sVf
p227
g213
sVmrt
p228
V10
p229
sVm
p230
Vnone
p231
sVm1ch
p232
g195
sVs
p233
VOn
p234
sVmv
p235
g200
sVt
p236
Vint
p237
sVvm
p238
NssV2-26
p239
(dp240
Vah
p241
g14
sVbytary
p242
NsVal
p243
g14
sVvn
p244
VFlow Setpoint
p245
sVct
p246
Vnumber
p247
sVle
p248
V16
p249
sVgrp
p250
V3600
p251
sVla
p252
F100.0
sVchn
p253
Vflowsetpoint
p254
sVun
p255
g74
sVdn
p256
Vadvvfdipp
p257
sVda
p258
V300
p259
sVlrt
p260
F1478557578.444449
sg80
Vcfg_PID_FlowSP
p261
sg82
g74
sVmisc_u
p262
VGPM
p263
sg86
g74
sVmrt
p264
V10
p265
sg89
Vnone
p266
sg91
g239
sVmv
p267
g83
sg93
VOn
p268
sg95
V0-500
p269
sg97
Vint
p270
sVvm
p271
NssV2-21
p272
(dp273
Vah
p274
g14
sVbytary
p275
NsVal
p276
g14
sVvn
p277
VAlarm Lockout
p278
sVct
p279
Vnumber
p280
sVle
p281
V16
p282
sVgrp
p283
V3600
p284
sVla
p285
I0
sVchn
p286
Valarmlockout
p287
sg28
V0-1
p288
sVdn
p289
Vadvvfdipp
p290
sVda
p291
V300
p292
sVlrt
p293
F1478557579.5222941
sg37
Valarm_Lockout
p294
sg39
g40
sVmisc_u
p295
g14
sg42
g31
sVmrt
p296
V60
p297
sg45
Vnone
p298
sVm1ch
p299
g272
sVmv
p300
g40
sg48
VOn
p301
sVun
p302
g31
sg51
Vint
p303
sVvm
p304
(dp305
g31
VLocked Out
p306
sg40
VOK
p307
sssV2-20
p308
(dp309
Vah
p310
g14
sVbytary
p311
NsVal
p312
g14
sVvn
p313
VAlarm: VFD
p314
sVct
p315
Vnumber
p316
sVle
p317
V16
p318
sVgrp
p319
V3600
p320
sVla
p321
I0
sVchn
p322
Valarmvfd
p323
sg28
V0-1
p324
sVdn
p325
Vadvvfdipp
p326
sVda
p327
V300
p328
sVlrt
p329
F1478557580.61171
sg37
Valarm_VFD
p330
sg39
g40
sVmisc_u
p331
g14
sg42
g31
sVmrt
p332
V60
p333
sg45
Vnone
p334
sVm1ch
p335
g308
sVmv
p336
g40
sg48
VOn
p337
sVun
p338
g31
sg51
Vint
p339
sVvm
p340
(dp341
g31
VAlarm
p342
sg40
VOK
p343
sssV2-23
p344
(dp345
Vah
p346
g14
sVbytary
p347
NsVal
p348
g200
sVvn
p349
VStart Permissive
p350
sVct
p351
Vnumber
p352
sVle
p353
V16
p354
sVgrp
p355
V3600
p356
sVla
p357
I0
sVchn
p358
Vstartpermissive
p359
sg219
V0-10
p360
sVdn
p361
Vadvvfdipp
p362
sVda
p363
V300
p364
sVlrt
p365
F1478557581.692014
sg221
VStart_Permissive_INT
p366
sg223
g200
sVmisc_u
p367
g14
sg227
g213
sVmrt
p368
V10
p369
sg230
Vnone
p370
sVm1ch
p371
g344
sVmv
p372
g200
sg233
VOn
p373
sVun
p374
g213
sg236
Vint
p375
sVvm
p376
(dp377
g213
VFlow
p378
sg200
VOK
p379
sV3
p380
VIntake Temperature
p381
sg224
VIntake Pressure
p382
sV5
p383
VVFD
p384
sV4
p385
VTubing Pressure
p386
sV7
p387
VMin. Downtime
p388
sV6
p389
VFluid Level
p390
sssV2-22
p391
(dp392
Vah
p393
g14
sVbytary
p394
NsVal
p395
g200
sVvn
p396
VRun Permissive
p397
sVct
p398
Vnumber
p399
sVle
p400
V16
p401
sVgrp
p402
V3600
p403
sVla
p404
I0
sVchn
p405
Vrunpermissive
p406
sg219
V0-10
p407
sVdn
p408
Vadvvfdipp
p409
sVda
p410
V300
p411
sVlrt
p412
F1478557582.7742049
sg221
VRun_Permissive_INT
p413
sg223
g200
sVmisc_u
p414
g14
sg227
g213
sVmrt
p415
V10
p416
sg230
Vnone
p417
sVm1ch
p418
g391
sVmv
p419
g200
sg233
VOn
p420
sVun
p421
g213
sg236
Vint
p422
sVvm
p423
(dp424
g213
VFlow
p425
sg200
VOK
p426
sg380
VIntake Temperature
p427
sg224
VIntake Pressure
p428
sg383
VVFD
p429
sg385
VTubing Pressure
p430
sg389
VFluid Level
p431
sssV2-2
p432
(dp433
Vah
p434
g14
sVbytary
p435
NsVal
p436
g14
sVvn
p437
VFluid Level
p438
sVct
p439
Vnumber
p440
sVle
p441
V16
p442
sVgrp
p443
V3600
p444
sVla
p445
F417.7178955078125
sVchn
p446
Vfluidlevel
p447
sVr
p448
V0-1000
p449
sVun
p450
V1
p451
sVdn
p452
Vadvvfdipp
p453
sVda
p454
V300
p455
sVlrt
p456
F1478557583.8458121
sVa
p457
Vval_FluidLevel
p458
sVc
p459
V5
p460
sVmisc_u
p461
Vft.
p462
sVf
p463
g451
sVmrt
p464
V10
p465
sVm
p466
Vnone
p467
sS'm1ch'
p468
g432
sVs
p469
VOn
p470
sVmv
p471
V0
p472
sVt
p473
Vint
p474
sVvm
p475
NssV2-3
p476
(dp477
Vah
p478
g14
sVbytary
p479
NsVal
p480
g14
sVvn
p481
VIntake Pressure
p482
sVct
p483
Vnumber
p484
sVle
p485
V16
p486
sVgrp
p487
V3600
p488
sVla
p489
F174.89999389648438
sVchn
p490
Vintakepressure
p491
sg448
V0-3000
p492
sVun
p493
g451
sVdn
p494
Vadvvfdipp
p495
sVda
p496
V300
p497
sVlrt
p498
F1478557584.9451029
sg457
Vval_IntakePressure
p499
sg459
V4
p500
sVmisc_u
p501
VPSI
p502
sg463
g451
sVmrt
p503
V60
p504
sg466
Vnone
p505
sg468
g476
sg469
VOn
p506
sVmv
p507
g472
sg473
Vint
p508
sVvm
p509
NssV2-1
p510
(dp511
Vah
p512
g14
sVbytary
p513
NsVal
p514
g14
sVvn
p515
VFlow Rate
p516
sVct
p517
Vnumber
p518
sVle
p519
V16
p520
sVgrp
p521
V3600
p522
sVla
p523
S''
p524
sVchn
p525
Vflowrate
p526
sg448
V0-400
p527
sVun
p528
g451
sVdn
p529
Vadvvfdipp
p530
sVda
p531
V300
p532
sVlrt
p533
F1475524119.6740338
sg457
Vval_Flowmeter
p534
sg459
g460
sVmisc_u
p535
VGPM
p536
sg463
g451
sVmrt
p537
V60
p538
sg466
Vnone
p539
sg468
g510
sg469
VOn
p540
sVmv
p541
g472
sg473
Vint
p542
sVvm
p543
NssV2-6
p544
(dp545
Vah
p546
g14
sVbytary
p547
NsVal
p548
g200
sVvn
p549
VPID Control Mode
p550
sVct
p551
Vnumber
p552
sVle
p553
V16
p554
sVgrp
p555
V3600
p556
sVla
p557
I1
sVchn
p558
Vpidcontrolmode
p559
sVun
p560
g213
sVdn
p561
Vadvvfdipp
p562
sVda
p563
V300
p564
sVlrt
p565
F1478557587.0991141
sg221
Vsts_PID_Control
p566
sg223
g200
sVmisc_u
p567
g14
sg227
g213
sVmrt
p568
V60
p569
sg230
Vnone
p570
sVm1ch
p571
g544
sVmv
p572
g200
sg233
VOn
p573
sg219
g14
sg236
Vint
p574
sVvm
p575
(dp576
g213
VFluid Level
p577
sg200
VFlow
p578
sg380
VManual
p579
sg224
VTubing Pressure
p580
sssV2-7
p581
(dp582
Vah
p583
g14
sVbytary
p584
NsVal
p585
g40
sVvn
p586
VWell Status
p587
sVct
p588
Vnumber
p589
sVle
p590
V16
p591
sVgrp
p592
V3600
p593
sVla
p594
I4
sVchn
p595
Vwellstatus
p596
sVun
p597
g31
sVdn
p598
Vadvvfdipp
p599
sVda
p600
V300
p601
sVlrt
p602
F1478557588.1809759
sg37
VDevice_Status_INT
p603
sg39
g40
sVmisc_u
p604
g14
sg42
g31
sVmrt
p605
V10
p606
sg45
Vnone
p607
sVm1ch
p608
g581
sVmv
p609
g40
sg48
VOn
p610
sg28
g14
sg51
Vint
p611
sVvm
p612
(dp613
g31
VPumped Off
p614
sg40
VRunning
p615
sV3
p616
VLocked Out
p617
sV2
p618
VAlarmed
p619
sV4
p620
VStopped
p621
sssV2-4
p622
(dp623
Vah
p624
g14
sVbytary
p625
NsVal
p626
g14
sVvn
p627
VIntake Temperature
p628
sVct
p629
Vnumber
p630
sVle
p631
V16
p632
sVgrp
p633
V3600
p634
sVla
p635
F78.699996948242188
sVchn
p636
Vintaketemperature
p637
sg448
V0-200
p638
sVun
p639
g451
sVdn
p640
Vadvvfdipp
p641
sVda
p642
V300
p643
sVlrt
p644
F1478557589.2700469
sg457
Vval_IntakeTemperature
p645
sg459
V2
p646
sVmisc_u
p647
Vdeg F
p648
sg463
g451
sVmrt
p649
V60
p650
sg466
Vnone
p651
sg468
g622
sg469
VOn
p652
sVmv
p653
g472
sg473
Vint
p654
sVvm
p655
NssV2-5
p656
(dp657
Vah
p658
g14
sVbytary
p659
NsVal
p660
g14
sVvn
p661
VTubing Pressure
p662
sVct
p663
Vnumber
p664
sVle
p665
V16
p666
sVgrp
p667
V3600
p668
sVla
p669
F14.329270362854004
sVchn
p670
Vtubingpressure
p671
sg448
V0-250
p672
sVun
p673
g451
sVdn
p674
Vadvvfdipp
p675
sVda
p676
V300
p677
sVlrt
p678
F1478557590.342868
sg457
Vval_TubingPressure
p679
sg459
g646
sVmisc_u
p680
VPSI
p681
sg463
g451
sVmrt
p682
V60
p683
sg466
Vnone
p684
sg468
g656
sg469
VOn
p685
sVmv
p686
g472
sg473
Vint
p687
sVvm
p688
NssV2-8
p689
(dp690
Vah
p691
g14
sVbytary
p692
NsVal
p693
g14
sVvn
p694
VVFD Frequency
p695
sVct
p696
Vnumber
p697
sVle
p698
V16
p699
sVgrp
p700
V3600
p701
sVla
p702
F0.0
sVchn
p703
Vvfdfrequency
p704
sg448
V0-100
p705
sVun
p706
g451
sVdn
p707
Vadvvfdipp
p708
sVda
p709
V300
p710
sVlrt
p711
F1478557591.4086288
sg457
VPowerFlex755.val_SpeedFdbk
p712
sg459
g451
sVmisc_u
p713
VHz
p714
sg463
g451
sVmrt
p715
V10
p716
sg466
Vnone
p717
sg468
g689
sg469
VOn
p718
sVmv
p719
g472
sg473
Vint
p720
sVvm
p721
NssV2-9
p722
(dp723
Vah
p724
g14
sVbytary
p725
NsVal
p726
g14
sVvn
p727
VFlow Total Today
p728
sVct
p729
Vnumber
p730
sVle
p731
V16
p732
sVgrp
p733
V3600
p734
sVla
p735
F0.0
sVchn
p736
Vflowtotal
p737
sg448
V0-1000000
p738
sVun
p739
g451
sVdn
p740
Vadvvfdipp
p741
sVda
p742
V300
p743
sVlrt
p744
F1478557592.5113159
sg457
VFlow_Total[0]
p745
sg459
V100
p746
sVmisc_u
p747
VGal
p748
sg463
g451
sVmrt
p749
V120
p750
sg466
Vnone
p751
sg468
g722
sg469
VOn
p752
sVmv
p753
g472
sg473
Vint
p754
sVvm
p755
NssV2-14
p756
(dp757
Vah
p758
g14
sVbytary
p759
NsVal
p760
g40
sVvn
p761
VFlow Total Yesterday
p762
sVct
p763
Vnumber
p764
sVle
p765
V16
p766
sVgrp
p767
V14400
p768
sVla
p769
F0.0
sVchn
p770
Vflowtotalyesterday
p771
sVun
p772
g31
sVdn
p773
Vadvvfdipp
p774
sVda
p775
V300
p776
sVlrt
p777
F1478557593.5933799
sg37
VFlow_Total[1]
p778
sg39
g40
sVmisc_u
p779
VGal
p780
sg42
g31
sVmrt
p781
V3600
p782
sg45
Vnone
p783
sVm1ch
p784
g756
sVmv
p785
g40
sg48
VOn
p786
sg28
g14
sg51
Vint
p787
sVvm
p788
NssV2-15
p789
(dp790
Vah
p791
g14
sVbytary
p792
NsVal
p793
g14
sVvn
p794
VEnergy Consumed Yesterday
p795
sVct
p796
Vnumber
p797
sVle
p798
V16
p799
sVgrp
p800
V14400
p801
sVla
p802
g524
sVchn
p803
Venergytotalyesterday
p804
sg448
V0-2000
p805
sVun
p806
g451
sVdn
p807
Vadvvfdipp
p808
sVda
p809
V300
p810
sVlrt
p811
F1475452770.675019
sg457
VEnergy_Total[1]
p812
sg459
g472
sVmisc_u
p813
VkWh
p814
sg463
g451
sVmrt
p815
V3600
p816
sg466
Vnone
p817
sg468
g789
sg469
VOn
p818
sVmv
p819
g472
sg473
Vint
p820
sVvm
p821
NssV2-30
p822
(dp823
Vah
p824
g14
sVbytary
p825
NsVal
p826
g14
sVvn
p827
VAlarm: Fluid Level
p828
sVct
p829
Vnumber
p830
sVle
p831
V16
p832
sVgrp
p833
V3600
p834
sVla
p835
I0
sVchn
p836
Valarmfluidlevel
p837
sVun
p838
g213
sVdn
p839
Vadvvfdipp
p840
sVvm
p841
(dp842
g213
VAlarm
p843
sg200
VOK
p844
ssVlrt
p845
F1478557595.7342032
sVda
p846
V300
p847
sg221
Valarm_FluidLevel
p848
sg223
g200
sVmisc_u
p849
g14
sg227
g213
sVmrt
p850
V10
p851
sg230
Vnone
p852
sS'm1ch'
p853
g822
sVmv
p854
g200
sg233
VOn
p855
sg219
V0-1
p856
sg236
Vint
p857
ssV2-17
p858
(dp859
Vah
p860
g14
sVbytary
p861
NsVal
p862
g14
sVvn
p863
VAlarm: Intake Pressure
p864
sVct
p865
Vnumber
p866
sVle
p867
V16
p868
sVgrp
p869
V3600
p870
sVla
p871
I0
sVchn
p872
Valarmintakepressure
p873
sg28
V0-1
p874
sVdn
p875
Vadvvfdipp
p876
sVda
p877
V300
p878
sVlrt
p879
F1478557596.8129939
sg37
Valarm_IntakePressure
p880
sg39
g40
sVmisc_u
p881
g14
sg42
g31
sVmrt
p882
V60
p883
sg45
Vnone
p884
sVm1ch
p885
g858
sVmv
p886
g40
sg48
VOn
p887
sVun
p888
g31
sg51
Vint
p889
sVvm
p890
(dp891
g31
VAlarm
p892
sg40
VOK
p893
sssV2-10
p894
(dp895
Vah
p896
g14
sVbytary
p897
NsVal
p898
V0
p899
sVvn
p900
VEnergy Consumed Today
p901
sVct
p902
Vnumber
p903
sVle
p904
V16
p905
sVgrp
p906
V3600
p907
sVla
p908
g524
sVchn
p909
Venergytotal
p910
sVun
p911
V1
p912
sVdn
p913
Vadvvfdipp
p914
sVda
p915
V300
p916
sVlrt
p917
F1475486565.1365966
sVa
p918
VEnergy_Total[0]
p919
sVc
p920
V10
p921
sVmisc_u
p922
VkWh
p923
sVf
p924
g912
sVmrt
p925
V120
p926
sVm
p927
Vnone
p928
sVm1ch
p929
g894
sVmv
p930
g899
sVs
p931
VOn
p932
sVr
p933
V0-2000
p934
sVt
p935
Vint
p936
sVvm
p937
NssV2-11
p938
(dp939
Vah
p940
g14
sVbytary
p941
NsVal
p942
g14
sVvn
p943
VVFD Current
p944
sVct
p945
Vnumber
p946
sVle
p947
V16
p948
sVgrp
p949
V3600
p950
sVla
p951
F0.0
sVchn
p952
Vvfdcurrent
p953
sg448
V0-100
p954
sVun
p955
g451
sVdn
p956
Vadvvfdipp
p957
sVda
p958
V300
p959
sVlrt
p960
F1478557598.9624661
sg457
VPowerFlex755.val_OutCurrent
p961
sg459
g451
sVmisc_u
p962
VA
p963
sg463
g451
sVmrt
p964
V30
p965
sg466
Vnone
p966
sg468
g938
sg469
VOn
p967
sVmv
p968
g472
sg473
Vint
p969
sVvm
p970
NssV2-12
p971
(dp972
Vah
p973
g14
sVbytary
p974
NsVal
p975
g14
sVvn
p976
VDH Sensor Status
p977
sVct
p978
Vnumber
p979
sVle
p980
V16
p981
sVgrp
p982
V3600
p983
sVla
p984
I0
sVchn
p985
Vdownholesensorstatus
p986
sg448
V0-6
p987
sVun
p988
g451
sVdn
p989
Vadvvfdipp
p990
sVda
p991
V300
p992
sVlrt
p993
F1478557600.0707459
sg457
VDownhole_Sensor_Status_INT
p994
sg459
g472
sVmisc_u
p995
g14
sg463
g451
sVmrt
p996
V120
p997
sg466
Vnone
p998
sg468
g971
sg469
VOn
p999
sVmv
p1000
g472
sg473
Vint
p1001
sVvm
p1002
(dp1003
g451
VConnecting
p1004
sg472
VOK
p1005
sV3
p1006
VShorted
p1007
sg646
VOpen Circuit
p1008
sg500
VCannot Decode
p1009
sssV2-13
p1010
(dp1011
Vah
p1012
g14
sVbytary
p1013
NsVal
p1014
g14
sVvn
p1015
VFluid Specific Gravity
p1016
sVct
p1017
Vnumber
p1018
sVle
p1019
V16
p1020
sVgrp
p1021
V86400
p1022
sVla
p1023
F1.003000020980835
sVchn
p1024
Vfluidspecificgravity
p1025
sg448
V0-2
p1026
sVun
p1027
g451
sVdn
p1028
Vadvvfdipp
p1029
sVda
p1030
V300
p1031
sVlrt
p1032
F1478557601.1446878
sg457
Vcfg_FluidSpecificGravity
p1033
sg459
V0.01
p1034
sVmisc_u
p1035
g14
sg463
g451
sVmrt
p1036
V60
p1037
sg466
Vnone
p1038
sg468
g1010
sg469
VOn
p1039
sVmv
p1040
g472
sg473
Vint
p1041
sVvm
p1042
NssV2-18
p1043
(dp1044
Vah
p1045
g14
sVbytary
p1046
NsVal
p1047
g14
sVvn
p1048
VAlarm: Intake Temperature
p1049
sVct
p1050
Vnumber
p1051
sVle
p1052
V16
p1053
sVgrp
p1054
V3600
p1055
sVla
p1056
I0
sVchn
p1057
Valarmintaketemperature
p1058
sg28
V0-1
p1059
sVdn
p1060
Vadvvfdipp
p1061
sVda
p1062
V300
p1063
sVlrt
p1064
F1478557602.2250959
sg37
Valarm_IntakeTemperature
p1065
sg39
g40
sVmisc_u
p1066
g14
sg42
g31
sVmrt
p1067
V60
p1068
sg45
Vnone
p1069
sVm1ch
p1070
g1043
sVmv
p1071
g40
sg48
VOn
p1072
sVun
p1073
g31
sg51
Vint
p1074
sVvm
p1075
(dp1076
g31
VAlarm
p1077
sg40
VOK
p1078
sssV2-19
p1079
(dp1080
Vah
p1081
g14
sVbytary
p1082
NsVal
p1083
g14
sVvn
p1084
VAlarm: Tubing Pressure
p1085
sVct
p1086
Vnumber
p1087
sVle
p1088
V16
p1089
sVgrp
p1090
V3600
p1091
sVla
p1092
I0
sVchn
p1093
Valarmtubingpressure
p1094
sg28
V0-1
p1095
sVdn
p1096
Vadvvfdipp
p1097
sVda
p1098
V300
p1099
sVlrt
p1100
F1478557603.301343
sg37
Valarm_TubingPressure
p1101
sg39
g40
sVmisc_u
p1102
g14
sg42
g31
sVmrt
p1103
V60
p1104
sg45
Vnone
p1105
sVm1ch
p1106
g1079
sVmv
p1107
g40
sg48
VOn
p1108
sVun
p1109
g31
sg51
Vint
p1110
sVvm
p1111
(dp1112
g31
VAlarm
p1113
sg40
VOK
p1114
sssssS'f'
p1115
VOff
p1116
sS'p'
p1117
g14
sS's'
p1118
g912
ssS'2'
p1119
(dp1120
g3
VETHERNET/IP
p1121
sg5
V192.168.1.10
p1122
sg7
(dp1123
V300
p1124
(dp1125
V4-1
p1126
(dp1127
Val
p1128
g14
sVah
p1129
g14
sVbytary
p1130
NsVvm
p1131
NsVvn
p1132
VPressure Shutdown Limit
p1133
sVct
p1134
Vnumber
p1135
sVle
p1136
V16
p1137
sVgrp
p1138
V2600
p1139
sVla
p1140
F25.0
sVchn
p1141
Vpressureshutdownlimit
p1142
sVun
p1143
g912
sVdn
p1144
Vadvvfdipp
p1145
sVda
p1146
V300
p1147
sVlrt
p1148
F1478557604.3959069
sg933
V0-1000
p1149
sg918
VAIn_IntakePressure.Val_LoLim
p1150
sg920
V0.5
p1151
sVmisc_u
p1152
VPSI
p1153
sg924
g912
sVmrt
p1154
V10
p1155
sg927
Vnone
p1156
sS'm1ch'
p1157
g1126
sg931
VOn
p1158
sVmv
p1159
g899
sg935
Vint
p1160
ssV4-2
p1161
(dp1162
Val
p1163
g14
sVah
p1164
g14
sVbytary
p1165
NsVvm
p1166
NsVvn
p1167
VPressure Startup Limit
p1168
sVct
p1169
Vnumber
p1170
sVle
p1171
V16
p1172
sVgrp
p1173
V3600
p1174
sVla
p1175
F150.0
sVchn
p1176
Vpressurestartuplimit
p1177
sVun
p1178
g912
sVdn
p1179
Vadvvfdipp
p1180
sVda
p1181
V300
p1182
sVlrt
p1183
F1478557605.4792181
sg933
V0-1000
p1184
sg918
VAIn_IntakePressure.Val_HiLim
p1185
sg920
V0.5
p1186
sVmisc_u
p1187
VPSI
p1188
sg924
g912
sVmrt
p1189
V10
p1190
sg927
Vnone
p1191
sg1157
g1161
sg931
VOn
p1192
sVmv
p1193
g899
sg935
Vint
p1194
ssV4-3
p1195
(dp1196
Val
p1197
g14
sVah
p1198
g14
sVbytary
p1199
NsVvm
p1200
NsVvn
p1201
VTemperature Shutdown Limit
p1202
sVct
p1203
Vnumber
p1204
sVle
p1205
V16
p1206
sVgrp
p1207
V3600
p1208
sVla
p1209
F86.0
sVchn
p1210
Vtemperatureshutdownlimit
p1211
sVun
p1212
g912
sVdn
p1213
Vadvvfdipp
p1214
sVda
p1215
V300
p1216
sVlrt
p1217
F1478557606.552884
sg933
V32-273
p1218
sg918
VAIn_IntakeTemperature.Val_HiLim
p1219
sg920
V0.5
p1220
sVmisc_u
p1221
Vdeg F
p1222
sg924
g912
sVmrt
p1223
V10
p1224
sg927
Vnone
p1225
sg1157
g1195
sg931
VOn
p1226
sVmv
p1227
g899
sg935
Vint
p1228
ssV4-4
p1229
(dp1230
Val
p1231
g14
sVah
p1232
g14
sVbytary
p1233
NsVvm
p1234
NsVvn
p1235
VTemperature Startup Limit
p1236
sVct
p1237
Vnumber
p1238
sVle
p1239
V16
p1240
sVgrp
p1241
V3600
p1242
sVla
p1243
F84.0
sVchn
p1244
Vtemperaturestartuplimit
p1245
sVun
p1246
g912
sVdn
p1247
Vadvvfdipp
p1248
sVda
p1249
V300
p1250
sVlrt
p1251
F1478557607.6328471
sg933
V32-273
p1252
sg918
VAIn_IntakeTemperature.Val_LoLim
p1253
sg920
V0.5
p1254
sVmisc_u
p1255
Vdeg F
p1256
sg924
g912
sVmrt
p1257
V10
p1258
sg927
Vnone
p1259
sg1157
g1229
sg931
VOn
p1260
sVmv
p1261
g899
sg935
Vint
p1262
ssV4-5
p1263
(dp1264
Val
p1265
g14
sVah
p1266
g14
sVbytary
p1267
NsVvm
p1268
NsVvn
p1269
VSensor Height
p1270
sVct
p1271
Vnumber
p1272
sVle
p1273
V16
p1274
sVgrp
p1275
V86400
p1276
sVla
p1277
NsVchn
p1278
Vsensorheight
p1279
sVun
p1280
g912
sVdn
p1281
Vadvvfdipp
p1282
sVda
p1283
V300
p1284
sVlrt
p1285
g899
sg933
V-100-100
p1286
sg918
Vcfg_DHSensorDistToIntake
p1287
sg920
V0.5
p1288
sVmisc_u
p1289
Vft.
p1290
sg924
g912
sVmrt
p1291
V10
p1292
sg927
Vnone
p1293
sg1157
g1263
sg931
VOn
p1294
sVmv
p1295
g899
sg935
Vint
p1296
ssssg1115
VOff
p1297
sg1117
g14
sg1118
g912
ss.