(dp0
S'1'
p1
(dp2
S'externalIP'
p3
S'192.168.1.2'
p4
sS'externalPort'
p5
S'80'
p6
sS'port'
p7
S'8095'
p8
ssS'3'
p9
(dp10
g3
S''
p11
sg5
g11
sg7
g11
ssS'2'
p12
(dp13
g3
g11
sg5
g11
sg7
g11
ssS'4'
p14
(dp15
g3
g11
sg5
g11
sg7
g11
ss.