(dp0
S'M1_[c4:93:00:06:71:38:00:30]!'
p1
(lp2
(dp3
S'then'
p4
(dp5
S'name'
p6
g1
sS'value'
p7
S'On'
p8
sS'channel'
p9
S'dout3'
p10
ssg7
S'<16'
p11
sg9
S'cloop'
p12
sa(dp13
g4
(dp14
g6
g1
sg7
S'Off'
p15
sg9
S'dout2'
p16
ssg7
g11
sg9
g12
sa(dp17
g4
(dp18
g6
g1
sg7
g15
sg9
S'dout1'
p19
ssg7
g11
sg9
g12
sa(dp20
g4
(dp21
g6
g1
sg7
g15
sg9
g10
ssg7
S'>16&<18'
p22
sg9
g12
sa(dp23
g4
(dp24
g6
g1
sg7
g8
sg9
g16
ssg7
g22
sg9
g12
sa(dp25
g4
(dp26
g6
g1
sg7
g15
sg9
g19
ssg7
g22
sg9
g12
sa(dp27
g4
(dp28
g6
g1
sg7
g15
sg9
g10
ssg7
S'>18'
p29
sg9
g12
sa(dp30
g4
(dp31
g6
g1
sg7
g15
sg9
g16
ssg7
g29
sg9
g12
sa(dp32
g4
(dp33
g6
g1
sg7
g8
sg9
g19
ssg7
g29
sg9
g12
sas.