(dp0
S'gedas_0045'
p1
S'1'
p2
sS'M1_0030'
p3
S'29'
p4
sS'dia_0009'
p5
S'5'
p6
sS'mainMeshify_0000'
p7
S'9'
p8
sS'part_0029'
p9
g2
sS'mcogen_0014'
p10
S'43'
p11
sS'otisc_0005'
p12
S'11'
p13
sS'advvfdipp_0100'
p14
S'2'
p15
s.