(dp0
VmainMeshify_0000
p1
(lp2
VmainMeshify
p3
aVmainMeshify
p4
aV0000
p5
aV10
p6
asVadvvfdipp_0100
p7
(lp8
Vadvvfdipp
p9
aVadvvfdipp
p10
aV0100
p11
aV2
p12
asVM1_0030
p13
(lp14
Vm1-7
p15
aVM1
p16
aV0030
p17
aV29
p18
as.