(dp0
Vmcogen_[14:10:9f:e3:4b:f9:00:14]!
p1
(dp2
S'mac'
p3
S'14109FE34BF9'
p4
sS'company'
p5
S'158'
p6
sS'events'
p7
(dp8
V8170
p9
(dp10
S'c'
p11
Vsendtoemail
p12
sS'set'
p13
S'[{"msgId": 9059, "mac": "14109FE34BF9", "company": "158", "user": "dane@buildinglynx.com", "payload": {"expires": "1389369695", "name": "mcogen_[14:10:9f:e3:4b:f9:00:14]!.sendtoemail", "value": "1"}}]'
p14
sS'd'
p15
(lp16
V0
p17
aV1
p18
aV2
p19
aV3
p20
aV4
p21
aV5
p22
aV6
p23
asS'h'
p24
g9
sS'n'
p25
VSecond Event
p26
sS't'
p27
V10:05
p28
sS'v'
p29
g18
ssV56e4
p30
(dp31
g11
Vsendtoemail
p32
sg13
S'[{"msgId": 3609, "mac": "14109FE34BF9", "company": "158", "user": "dane@buildinglynx.com", "payload": {"expires": "1389369695", "name": "mcogen_[14:10:9f:e3:4b:f9:00:14]!.sendtoemail", "value": "sdfsadf"}}]'
p33
sg15
(lp34
g17
ag18
ag19
ag20
ag21
ag22
ag23
asg24
g30
sg25
VLewis first test event
p35
sg27
V07:55
p36
sg29
Vsdfsadf
p37
ssVf3b4
p38
(dp39
g11
Vsendtoemail
p40
sg13
S'[{"msgId": 7543, "mac": "14109FE34BF9", "company": "158", "user": "dane@buildinglynx.com", "payload": {"expires": "1389369695", "name": "mcogen_[14:10:9f:e3:4b:f9:00:14]!.sendtoemail", "value": "3"}}]'
p41
sg15
(lp42
g17
ag18
ag19
ag20
ag21
ag22
ag23
asg24
Vf3b4
p43
sg25
VThird Event
p44
sg27
V13:55
p45
sg29
g20
ssV007f
p46
(dp47
g11
Vsendtoemail
p48
sg13
S'[{"msgId": 6618, "mac": "14109FE34BF9", "company": "158", "user": "dane@buildinglynx.com", "payload": {"expires": "1389369695", "name": "mcogen_[14:10:9f:e3:4b:f9:00:14]!.sendtoemail", "value": "1"}}]'
p49
sg15
(lp50
g17
ag18
ag19
ag20
ag21
ag22
ag23
asg24
V007f
p51
sg25
VFirst Event
p52
sg27
V08:00
p53
sg29
g18
sssS'name'
p54
g1
ss.